; Function Attrs: mustprogress nounwind uwtable
define internal noundef ptr @"_ZZN4node6crypto13DiffieHellman12GetPublicKeyERKN2v820FunctionCallbackInfoINS2_5ValueEEEEN3$_08__invokeEPK5dh_st"(ptr noundef %dh) #3 align 2 {
entry:
  %pub_key.i = alloca ptr, align 8
  call void @llvm.lifetime.start.p0(i64 8, ptr nonnull %pub_key.i)
  call void @DH_get0_key(ptr noundef %dh, ptr noundef nonnull %pub_key.i, ptr noundef null) #18
  %0 = load ptr, ptr %pub_key.i, align 8
  call void @llvm.lifetime.end.p0(i64 8, ptr nonnull %pub_key.i)
  ret ptr %0
}